; Function Attrs: nounwind uwtable
define dso_local void @set_merge_remote_desc(ptr noundef readonly captures(none) %0, ptr noundef readonly captures(none) %1, ptr noundef %2) local_unnamed_addr #0 {
  %4 = tail call i64 @strlen(ptr noundef nonnull dereferenceable(1) %1) #26
  %5 = icmp ugt i64 %4, -9
  br i1 %5, label %6, label %st_add.exit

6:                                                ; preds = %3
  tail call void (ptr, ...) @die(ptr noundef nonnull @.str.38, i64 noundef 8, i64 noundef %4) #25
  unreachable

st_add.exit:                                      ; preds = %3
  %7 = icmp eq i64 %4, -9
  br i1 %7, label %8, label %st_add.exit8

8:                                                ; preds = %st_add.exit
  tail call void (ptr, ...) @die(ptr noundef nonnull @.str.38, i64 noundef -1, i64 noundef 1) #25
  unreachable

st_add.exit8:                                     ; preds = %st_add.exit
  %9 = add nuw i64 %4, 9
  %10 = tail call ptr @xcalloc(i64 noundef 1, i64 noundef %9) #24
  %11 = getelementptr inbounds nuw i8, ptr %10, i64 8
  tail call void @llvm.memcpy.p0.p0.i64(ptr nonnull align 8 %11, ptr nonnull align 1 %1, i64 %4, i1 false)
  store ptr %2, ptr %10, align 8, !tbaa !171
  %12 = getelementptr i8, ptr %0, i64 64
  %.val = load i32, ptr %12, align 8, !tbaa !77
  %13 = udiv i32 %.val, 65532
  %14 = urem i32 %.val, 65532
  %15 = load i32, ptr @merge_desc_slab.2, align 8, !tbaa !162
  %.not.i.i = icmp ugt i32 %15, %13
  %.pre.i.i = load ptr, ptr @merge_desc_slab.3, align 8, !tbaa !165
  br i1 %.not.i.i, label %24, label %st_mult.exit.i.i

st_mult.exit.i.i:                                 ; preds = %st_add.exit8
  %16 = add nuw nsw i32 %13, 1
  %17 = shl nuw nsw i32 %16, 3
  %18 = zext nneg i32 %17 to i64
  %19 = tail call ptr @xrealloc(ptr noundef %.pre.i.i, i64 noundef %18) #24
  store ptr %19, ptr @merge_desc_slab.3, align 8, !tbaa !165
  %20 = load i32, ptr @merge_desc_slab.2, align 8, !tbaa !162
  %.not332.i.i = icmp ugt i32 %20, %13
  br i1 %.not332.i.i, label %._crit_edge.i.i, label %.lr.ph.i.i

.lr.ph.i.i:                                       ; preds = %st_mult.exit.i.i, %.lr.ph.i.i
  %.0303.i.i = phi i32 [ %23, %.lr.ph.i.i ], [ %20, %st_mult.exit.i.i ]
  %21 = zext i32 %.0303.i.i to i64
  %22 = getelementptr inbounds nuw ptr, ptr %19, i64 %21
  store ptr null, ptr %22, align 8, !tbaa !166
  %23 = add i32 %.0303.i.i, 1
  %.not33.i.i = icmp ugt i32 %23, %13
  br i1 %.not33.i.i, label %._crit_edge.i.i, label %.lr.ph.i.i, !llvm.loop !168

._crit_edge.i.i:                                  ; preds = %.lr.ph.i.i, %st_mult.exit.i.i
  store i32 %16, ptr @merge_desc_slab.2, align 8, !tbaa !162
  br label %24

24:                                               ; preds = %._crit_edge.i.i, %st_add.exit8
  %25 = phi ptr [ %19, %._crit_edge.i.i ], [ %.pre.i.i, %st_add.exit8 ]
  %26 = zext nneg i32 %13 to i64
  %27 = getelementptr inbounds nuw ptr, ptr %25, i64 %26
  %28 = load ptr, ptr %27, align 8, !tbaa !166
  %.not34.i.i = icmp eq ptr %28, null
  br i1 %.not34.i.i, label %29, label %merge_desc_slab_at.exit

29:                                               ; preds = %24
  %30 = tail call ptr @xcalloc(i64 noundef 65532, i64 noundef 8) #24
  %31 = load ptr, ptr @merge_desc_slab.3, align 8, !tbaa !165
  %32 = getelementptr inbounds nuw ptr, ptr %31, i64 %26
  store ptr %30, ptr %32, align 8, !tbaa !166
  br label %merge_desc_slab_at.exit

merge_desc_slab_at.exit:                          ; preds = %24, %29
  %33 = phi ptr [ %28, %24 ], [ %30, %29 ]
  %34 = zext nneg i32 %14 to i64
  %35 = getelementptr inbounds nuw ptr, ptr %33, i64 %34
  store ptr %10, ptr %35, align 8, !tbaa !169
  ret void
}